target datalayout = "e-m:e-p270:32:32-p271:32:32-p272:64:64-i64:64-i128:128-f80:128-n8:16:32:64-S128"
target triple = "x86_64-pc-linux-gnu"

%struct.CSzFile = type { ptr, ptr }

@.str = private unnamed_addr constant [4 x i8] c"wb+\00", align 1
@.str.1 = private unnamed_addr constant [3 x i8] c"rb\00", align 1

; Function Attrs: nounwind uwtable
define internal i32 @File_Open(ptr noundef %0, ptr noundef %1, i32 noundef %2) #0 {
  %4 = alloca ptr, align 8
  %5 = alloca ptr, align 8
  %6 = alloca i32, align 4
  store ptr %0, ptr %4, align 8, !tbaa !3
  store ptr %1, ptr %5, align 8, !tbaa !11
  store i32 %2, ptr %6, align 4, !tbaa !13
  %7 = load ptr, ptr %5, align 8, !tbaa !11
  %8 = load i32, ptr %6, align 4, !tbaa !13
  %9 = icmp ne i32 %8, 0
  %10 = select i1 %9, ptr @.str, ptr @.str.1
  %11 = call noalias ptr @fopen(ptr noundef %7, ptr noundef %10)
  %12 = load ptr, ptr %4, align 8, !tbaa !3
  %13 = getelementptr inbounds nuw %struct.CSzFile, ptr %12, i32 0, i32 0
  store ptr %11, ptr %13, align 8, !tbaa !7
  %14 = load ptr, ptr %4, align 8, !tbaa !3
  %15 = getelementptr inbounds nuw %struct.CSzFile, ptr %14, i32 0, i32 0
  %16 = load ptr, ptr %15, align 8, !tbaa !7
  %17 = icmp ne ptr %16, null
  br i1 %17, label %18, label %19

18:                                               ; preds = %3
  br label %22

19:                                               ; preds = %3
  %20 = call ptr @__errno_location() #5
  %21 = load i32, ptr %20, align 4, !tbaa !13
  br label %22

22:                                               ; preds = %19, %18
  %23 = phi i32 [ 0, %18 ], [ %21, %19 ]
  ret i32 %23
}

; Function Attrs: nounwind uwtable
define i32 @InFile_Open(ptr noundef %0, ptr noundef %1) #0 {
  %3 = alloca ptr, align 8
  %4 = alloca ptr, align 8
  store ptr %0, ptr %3, align 8, !tbaa !3
  store ptr %1, ptr %4, align 8, !tbaa !11
  %5 = load ptr, ptr %3, align 8, !tbaa !3
  %6 = load ptr, ptr %4, align 8, !tbaa !11
  %7 = call i32 @File_Open(ptr noundef %5, ptr noundef %6, i32 noundef 0)
  ret i32 %7
}